target datalayout = "e-m:e-p270:32:32-p271:32:32-p272:64:64-i64:64-i128:128-f80:128-n8:16:32:64-S128"
target triple = "x86_64-pc-linux-gnu"

%struct.InterpFilterParams = type { ptr, i16, i8 }

; Function Attrs: nounwind uwtable
define internal i32 @clamp(i32 noundef %0, i32 noundef %1, i32 noundef %2) #0 {
  %4 = alloca i32, align 4
  %5 = alloca i32, align 4
  %6 = alloca i32, align 4
  store i32 %0, ptr %4, align 4
  store i32 %1, ptr %5, align 4
  store i32 %2, ptr %6, align 4
  %7 = load i32, ptr %4, align 4
  %8 = load i32, ptr %5, align 4
  %9 = icmp slt i32 %7, %8
  br i1 %9, label %10, label %12

10:                                               ; preds = %3
  %11 = load i32, ptr %5, align 4
  br label %22

12:                                               ; preds = %3
  %13 = load i32, ptr %4, align 4
  %14 = load i32, ptr %6, align 4
  %15 = icmp sgt i32 %13, %14
  br i1 %15, label %16, label %18

16:                                               ; preds = %12
  %17 = load i32, ptr %6, align 4
  br label %20

18:                                               ; preds = %12
  %19 = load i32, ptr %4, align 4
  br label %20

20:                                               ; preds = %18, %16
  %21 = phi i32 [ %17, %16 ], [ %19, %18 ]
  br label %22

22:                                               ; preds = %20, %10
  %23 = phi i32 [ %11, %10 ], [ %21, %20 ]
  ret i32 %23
}

; Function Attrs: nounwind uwtable
define internal zeroext i16 @clip_pixel_highbd(i32 noundef %0, i32 noundef %1) #0 {
  %3 = alloca i16, align 2
  %4 = alloca i32, align 4
  %5 = alloca i32, align 4
  store i32 %0, ptr %4, align 4
  store i32 %1, ptr %5, align 4
  %6 = load i32, ptr %5, align 4
  switch i32 %6, label %8 [
    i32 8, label %7
    i32 10, label %12
    i32 12, label %16
  ]

7:                                                ; preds = %2
  br label %8

8:                                                ; preds = %7, %2
  %9 = load i32, ptr %4, align 4
  %10 = call i32 @clamp(i32 noundef %9, i32 noundef 0, i32 noundef 255)
  %11 = trunc i32 %10 to i16
  store i16 %11, ptr %3, align 2
  br label %20

12:                                               ; preds = %2
  %13 = load i32, ptr %4, align 4
  %14 = call i32 @clamp(i32 noundef %13, i32 noundef 0, i32 noundef 1023)
  %15 = trunc i32 %14 to i16
  store i16 %15, ptr %3, align 2
  br label %20

16:                                               ; preds = %2
  %17 = load i32, ptr %4, align 4
  %18 = call i32 @clamp(i32 noundef %17, i32 noundef 0, i32 noundef 4095)
  %19 = trunc i32 %18 to i16
  store i16 %19, ptr %3, align 2
  br label %20

20:                                               ; preds = %16, %12, %8
  %21 = load i16, ptr %3, align 2
  ret i16 %21
}

; Function Attrs: nounwind uwtable
define internal ptr @av1_get_interp_filter_subpel_kernel(ptr noundef %0, i32 noundef %1) #0 {
  %3 = alloca ptr, align 8
  %4 = alloca i32, align 4
  store ptr %0, ptr %3, align 8
  store i32 %1, ptr %4, align 4
  %5 = load ptr, ptr %3, align 8
  %6 = getelementptr inbounds nuw %struct.InterpFilterParams, ptr %5, i32 0, i32 0
  %7 = load ptr, ptr %6, align 8
  %8 = load ptr, ptr %3, align 8
  %9 = getelementptr inbounds nuw %struct.InterpFilterParams, ptr %8, i32 0, i32 1
  %10 = load i16, ptr %9, align 8
  %11 = zext i16 %10 to i32
  %12 = load i32, ptr %4, align 4
  %13 = mul nsw i32 %11, %12
  %14 = sext i32 %13 to i64
  %15 = getelementptr inbounds i16, ptr %7, i64 %14
  ret ptr %15
}

; Function Attrs: nounwind uwtable
define hidden void @av1_highbd_convolve_y_sr_c(ptr noundef %0, i32 noundef %1, ptr noundef %2, i32 noundef %3, i32 noundef %4, i32 noundef %5, ptr noundef %6, i32 noundef %7, i32 noundef %8) #0 {
  %10 = alloca ptr, align 8
  %11 = alloca i32, align 4
  %12 = alloca ptr, align 8
  %13 = alloca i32, align 4
  %14 = alloca i32, align 4
  %15 = alloca i32, align 4
  %16 = alloca ptr, align 8
  %17 = alloca i32, align 4
  %18 = alloca i32, align 4
  %19 = alloca i32, align 4
  %20 = alloca ptr, align 8
  %21 = alloca i32, align 4
  %22 = alloca i32, align 4
  %23 = alloca i32, align 4
  %24 = alloca i32, align 4
  store ptr %0, ptr %10, align 8
  store i32 %1, ptr %11, align 4
  store ptr %2, ptr %12, align 8
  store i32 %3, ptr %13, align 4
  store i32 %4, ptr %14, align 4
  store i32 %5, ptr %15, align 4
  store ptr %6, ptr %16, align 8
  store i32 %7, ptr %17, align 4
  store i32 %8, ptr %18, align 4
  %25 = load ptr, ptr %16, align 8
  %26 = getelementptr inbounds nuw %struct.InterpFilterParams, ptr %25, i32 0, i32 1
  %27 = load i16, ptr %26, align 8
  %28 = zext i16 %27 to i32
  %29 = sdiv i32 %28, 2
  %30 = sub nsw i32 %29, 1
  store i32 %30, ptr %19, align 4
  %31 = load ptr, ptr %16, align 8
  %32 = load i32, ptr %17, align 4
  %33 = and i32 %32, 15
  %34 = call ptr @av1_get_interp_filter_subpel_kernel(ptr noundef %31, i32 noundef %33)
  store ptr %34, ptr %20, align 8
  store i32 0, ptr %21, align 4
  br label %35

35:                                               ; preds = %97, %9
  %36 = load i32, ptr %21, align 4
  %37 = load i32, ptr %15, align 4
  %38 = icmp slt i32 %36, %37
  br i1 %38, label %39, label %100

39:                                               ; preds = %35
  store i32 0, ptr %22, align 4
  br label %40

40:                                               ; preds = %93, %39
  %41 = load i32, ptr %22, align 4
  %42 = load i32, ptr %14, align 4
  %43 = icmp slt i32 %41, %42
  br i1 %43, label %44, label %96

44:                                               ; preds = %40
  store i32 0, ptr %23, align 4
  store i32 0, ptr %24, align 4
  br label %45

45:                                               ; preds = %76, %44
  %46 = load i32, ptr %24, align 4
  %47 = load ptr, ptr %16, align 8
  %48 = getelementptr inbounds nuw %struct.InterpFilterParams, ptr %47, i32 0, i32 1
  %49 = load i16, ptr %48, align 8
  %50 = zext i16 %49 to i32
  %51 = icmp slt i32 %46, %50
  br i1 %51, label %52, label %79

52:                                               ; preds = %45
  %53 = load ptr, ptr %20, align 8
  %54 = load i32, ptr %24, align 4
  %55 = sext i32 %54 to i64
  %56 = getelementptr inbounds i16, ptr %53, i64 %55
  %57 = load i16, ptr %56, align 2
  %58 = sext i16 %57 to i32
  %59 = load ptr, ptr %10, align 8
  %60 = load i32, ptr %21, align 4
  %61 = load i32, ptr %19, align 4
  %62 = sub nsw i32 %60, %61
  %63 = load i32, ptr %24, align 4
  %64 = add nsw i32 %62, %63
  %65 = load i32, ptr %11, align 4
  %66 = mul nsw i32 %64, %65
  %67 = load i32, ptr %22, align 4
  %68 = add nsw i32 %66, %67
  %69 = sext i32 %68 to i64
  %70 = getelementptr inbounds i16, ptr %59, i64 %69
  %71 = load i16, ptr %70, align 2
  %72 = zext i16 %71 to i32
  %73 = mul nsw i32 %58, %72
  %74 = load i32, ptr %23, align 4
  %75 = add nsw i32 %74, %73
  store i32 %75, ptr %23, align 4
  br label %76

76:                                               ; preds = %52
  %77 = load i32, ptr %24, align 4
  %78 = add nsw i32 %77, 1
  store i32 %78, ptr %24, align 4
  br label %45, !llvm.loop !52

79:                                               ; preds = %45
  %80 = load i32, ptr %23, align 4
  %81 = add nsw i32 %80, 64
  %82 = ashr i32 %81, 7
  %83 = load i32, ptr %18, align 4
  %84 = call zeroext i16 @clip_pixel_highbd(i32 noundef %82, i32 noundef %83)
  %85 = load ptr, ptr %12, align 8
  %86 = load i32, ptr %21, align 4
  %87 = load i32, ptr %13, align 4
  %88 = mul nsw i32 %86, %87
  %89 = load i32, ptr %22, align 4
  %90 = add nsw i32 %88, %89
  %91 = sext i32 %90 to i64
  %92 = getelementptr inbounds i16, ptr %85, i64 %91
  store i16 %84, ptr %92, align 2
  br label %93

93:                                               ; preds = %79
  %94 = load i32, ptr %22, align 4
  %95 = add nsw i32 %94, 1
  store i32 %95, ptr %22, align 4
  br label %40, !llvm.loop !53

96:                                               ; preds = %40
  br label %97

97:                                               ; preds = %96
  %98 = load i32, ptr %21, align 4
  %99 = add nsw i32 %98, 1
  store i32 %99, ptr %21, align 4
  br label %35, !llvm.loop !54

100:                                              ; preds = %35
  ret void
}