; Function Attrs: nofree norecurse nosync nounwind memory(read, argmem: readwrite, inaccessiblemem: none) uwtable
define hidden void @av1_highbd_convolve_y_sr_c(ptr noundef readonly captures(none) %0, i32 noundef %1, ptr noundef writeonly captures(none) %2, i32 noundef %3, i32 noundef %4, i32 noundef %5, ptr noundef readonly captures(none) %6, i32 noundef %7, i32 noundef %8) local_unnamed_addr #1 {
  %10 = getelementptr inbounds nuw i8, ptr %6, i64 8
  %11 = load i16, ptr %10, align 8
  %12 = and i32 %7, 15
  %.val = load ptr, ptr %6, align 8
  %13 = zext i16 %11 to i32
  %14 = mul nuw nsw i32 %12, %13
  %15 = zext nneg i32 %14 to i64
  %16 = getelementptr inbounds nuw i16, ptr %.val, i64 %15
  %17 = icmp sgt i32 %5, 0
  %18 = icmp sgt i32 %4, 0
  %or.cond = and i1 %17, %18
  br i1 %or.cond, label %.preheader31.us.preheader, label %._crit_edge37

.preheader31.us.preheader:                        ; preds = %9
  %19 = lshr i16 %11, 1
  %20 = sext i32 %1 to i64
  %21 = sext i32 %3 to i64
  %22 = zext nneg i16 %19 to i64
  %wide.trip.count51 = zext nneg i32 %5 to i64
  %wide.trip.count44 = zext nneg i32 %4 to i64
  br label %.preheader31.us

.preheader31.us:                                  ; preds = %.preheader31.us.preheader, %._crit_edge35.us
  %indvars.iv46 = phi i64 [ 0, %.preheader31.us.preheader ], [ %indvars.iv.next47, %._crit_edge35.us ]
  %23 = sub nsw i64 %indvars.iv46, %22
  %24 = add nsw i64 %23, 1
  %25 = mul nsw i64 %indvars.iv46, %21
  %invariant.gep53 = getelementptr i16, ptr %2, i64 %25
  br label %.preheader.us

._crit_edge.us.loopexit:                          ; preds = %.lr.ph.us
  %26 = add nsw i32 %44, 64
  %27 = ashr i32 %26, 7
  br label %._crit_edge.us

._crit_edge.us:                                   ; preds = %._crit_edge.us.loopexit, %.preheader.us
  %.026.lcssa.us = phi i32 [ 0, %.preheader.us ], [ %27, %._crit_edge.us.loopexit ]
  switch i32 %8, label %32 [
    i32 12, label %30
    i32 10, label %28
  ]

28:                                               ; preds = %._crit_edge.us
  %29 = tail call i32 @llvm.umin.i32(i32 %.026.lcssa.us, i32 1023)
  br label %clip_pixel_highbd.exit.us

30:                                               ; preds = %._crit_edge.us
  %31 = tail call i32 @llvm.umin.i32(i32 %.026.lcssa.us, i32 4095)
  br label %clip_pixel_highbd.exit.us

32:                                               ; preds = %._crit_edge.us
  %33 = tail call i32 @llvm.umin.i32(i32 %.026.lcssa.us, i32 255)
  br label %clip_pixel_highbd.exit.us

clip_pixel_highbd.exit.us:                        ; preds = %32, %30, %28
  %.sink.i.us = phi i32 [ %31, %30 ], [ %29, %28 ], [ %33, %32 ]
  %34 = icmp slt i32 %.026.lcssa.us, 0
  %35 = trunc nuw nsw i32 %.sink.i.us to i16
  %.0.i.us = select i1 %34, i16 0, i16 %35
  %gep54 = getelementptr i16, ptr %invariant.gep53, i64 %indvars.iv41
  store i16 %.0.i.us, ptr %gep54, align 2
  %indvars.iv.next42 = add nuw nsw i64 %indvars.iv41, 1
  %exitcond45.not = icmp eq i64 %indvars.iv.next42, %wide.trip.count44
  br i1 %exitcond45.not, label %._crit_edge35.us, label %.preheader.us, !llvm.loop !52

.lr.ph.us:                                        ; preds = %.lr.ph.us.preheader, %.lr.ph.us
  %indvars.iv = phi i64 [ 0, %.lr.ph.us.preheader ], [ %indvars.iv.next, %.lr.ph.us ]
  %.02632.us = phi i32 [ 0, %.lr.ph.us.preheader ], [ %44, %.lr.ph.us ]
  %36 = getelementptr inbounds nuw i16, ptr %16, i64 %indvars.iv
  %37 = load i16, ptr %36, align 2
  %38 = sext i16 %37 to i32
  %39 = add nsw i64 %24, %indvars.iv
  %40 = mul nsw i64 %39, %20
  %gep = getelementptr i16, ptr %invariant.gep, i64 %40
  %41 = load i16, ptr %gep, align 2
  %42 = zext i16 %41 to i32
  %43 = mul nsw i32 %42, %38
  %44 = add nsw i32 %43, %.02632.us
  %indvars.iv.next = add nuw nsw i64 %indvars.iv, 1
  %exitcond.not = icmp eq i64 %indvars.iv.next, %wide.trip.count
  br i1 %exitcond.not, label %._crit_edge.us.loopexit, label %.lr.ph.us, !llvm.loop !53

.preheader.us:                                    ; preds = %.preheader31.us, %clip_pixel_highbd.exit.us
  %indvars.iv41 = phi i64 [ 0, %.preheader31.us ], [ %indvars.iv.next42, %clip_pixel_highbd.exit.us ]
  %45 = load i16, ptr %10, align 8
  %.not = icmp eq i16 %45, 0
  br i1 %.not, label %._crit_edge.us, label %.lr.ph.us.preheader

.lr.ph.us.preheader:                              ; preds = %.preheader.us
  %wide.trip.count = zext i16 %45 to i64
  %invariant.gep = getelementptr i16, ptr %0, i64 %indvars.iv41
  br label %.lr.ph.us

._crit_edge35.us:                                 ; preds = %clip_pixel_highbd.exit.us
  %indvars.iv.next47 = add nuw nsw i64 %indvars.iv46, 1
  %exitcond52.not = icmp eq i64 %indvars.iv.next47, %wide.trip.count51
  br i1 %exitcond52.not, label %._crit_edge37, label %.preheader31.us, !llvm.loop !54

._crit_edge37:                                    ; preds = %._crit_edge35.us, %9
  ret void
}